target datalayout = "e-m:e-p270:32:32-p271:32:32-p272:64:64-i64:64-i128:128-f80:128-n8:16:32:64-S128"
target triple = "x86_64-pc-linux-gnu"

%"class.boost::archive::class_id_type" = type { i16 }
%"class.boost::archive::version_type" = type { i32 }
%"class.boost::archive::detail::basic_iarchive_impl" = type { %"class.boost::serialization::library_version_type", i32, %"class.std::vector", %"struct.boost::archive::detail::basic_iarchive_impl::moveable_objects", %"class.std::set", %"class.std::vector.3", %"struct.boost::archive::detail::basic_iarchive_impl::pending" }
%"class.boost::serialization::library_version_type" = type { i16 }
%"class.std::vector" = type { %"struct.std::_Vector_base" }
%"struct.std::_Vector_base" = type { %"struct.std::_Vector_base<boost::archive::detail::basic_iarchive_impl::aobject, std::allocator<boost::archive::detail::basic_iarchive_impl::aobject>>::_Vector_impl" }
%"struct.std::_Vector_base<boost::archive::detail::basic_iarchive_impl::aobject, std::allocator<boost::archive::detail::basic_iarchive_impl::aobject>>::_Vector_impl" = type { %"struct.std::_Vector_base<boost::archive::detail::basic_iarchive_impl::aobject, std::allocator<boost::archive::detail::basic_iarchive_impl::aobject>>::_Vector_impl_data" }
%"struct.std::_Vector_base<boost::archive::detail::basic_iarchive_impl::aobject, std::allocator<boost::archive::detail::basic_iarchive_impl::aobject>>::_Vector_impl_data" = type { ptr, ptr, ptr }
%"struct.boost::archive::detail::basic_iarchive_impl::moveable_objects" = type <{ %"class.boost::archive::object_id_type", %"class.boost::archive::object_id_type", %"class.boost::archive::object_id_type", i8, [3 x i8] }>
%"class.boost::archive::object_id_type" = type { i32 }
%"class.std::set" = type { %"class.std::_Rb_tree" }
%"class.std::_Rb_tree" = type { %"struct.std::_Rb_tree<boost::archive::detail::basic_iarchive_impl::cobject_type, boost::archive::detail::basic_iarchive_impl::cobject_type, std::_Identity<boost::archive::detail::basic_iarchive_impl::cobject_type>, std::less<boost::archive::detail::basic_iarchive_impl::cobject_type>>::_Rb_tree_impl" }
%"struct.std::_Rb_tree<boost::archive::detail::basic_iarchive_impl::cobject_type, boost::archive::detail::basic_iarchive_impl::cobject_type, std::_Identity<boost::archive::detail::basic_iarchive_impl::cobject_type>, std::less<boost::archive::detail::basic_iarchive_impl::cobject_type>>::_Rb_tree_impl" = type { [8 x i8], %"struct.std::_Rb_tree_header" }
%"struct.std::_Rb_tree_header" = type { %"struct.std::_Rb_tree_node_base", i64 }
%"struct.std::_Rb_tree_node_base" = type { i32, ptr, ptr, ptr }
%"class.std::vector.3" = type { %"struct.std::_Vector_base.4" }
%"struct.std::_Vector_base.4" = type { %"struct.std::_Vector_base<boost::archive::detail::basic_iarchive_impl::cobject_id, std::allocator<boost::archive::detail::basic_iarchive_impl::cobject_id>>::_Vector_impl" }
%"struct.std::_Vector_base<boost::archive::detail::basic_iarchive_impl::cobject_id, std::allocator<boost::archive::detail::basic_iarchive_impl::cobject_id>>::_Vector_impl" = type { %"struct.std::_Vector_base<boost::archive::detail::basic_iarchive_impl::cobject_id, std::allocator<boost::archive::detail::basic_iarchive_impl::cobject_id>>::_Vector_impl_data" }
%"struct.std::_Vector_base<boost::archive::detail::basic_iarchive_impl::cobject_id, std::allocator<boost::archive::detail::basic_iarchive_impl::cobject_id>>::_Vector_impl_data" = type { ptr, ptr, ptr }
%"struct.boost::archive::detail::basic_iarchive_impl::pending" = type <{ ptr, ptr, %"class.boost::archive::version_type", [4 x i8] }>
%"struct.boost::archive::detail::basic_iarchive_impl::aobject" = type <{ ptr, i8, i8, %"class.boost::archive::class_id_type", [4 x i8] }>

; Function Attrs: mustprogress nounwind uwtable
define linkonce_odr hidden noundef nonnull align 8 dereferenceable(12) ptr @_ZNSt6vectorIN5boost7archive6detail19basic_iarchive_impl7aobjectESaIS4_EEixEm(ptr noundef nonnull align 8 dereferenceable(24) %0, i64 noundef %1) #2 comdat align 2 {
  %3 = alloca ptr, align 8
  %4 = alloca i64, align 8
  store ptr %0, ptr %3, align 8, !tbaa !3
  store i64 %1, ptr %4, align 8, !tbaa !48
  %5 = load ptr, ptr %3, align 8
  %6 = getelementptr inbounds nuw %"struct.std::_Vector_base", ptr %5, i32 0, i32 0
  %7 = getelementptr inbounds nuw %"struct.std::_Vector_base<boost::archive::detail::basic_iarchive_impl::aobject, std::allocator<boost::archive::detail::basic_iarchive_impl::aobject>>::_Vector_impl_data", ptr %6, i32 0, i32 0
  %8 = load ptr, ptr %7, align 8, !tbaa !53
  %9 = load i64, ptr %4, align 8, !tbaa !48
  %10 = getelementptr inbounds nuw %"struct.boost::archive::detail::basic_iarchive_impl::aobject", ptr %8, i64 %9
  ret ptr %10
}

; Function Attrs: mustprogress nounwind uwtable
define linkonce_odr hidden noundef nonnull align 4 dereferenceable(4) ptr @_ZN5boost7archive14object_id_typecvRjEv(ptr noundef nonnull align 4 dereferenceable(4) %0) #2 comdat align 2 {
  %2 = alloca ptr, align 8
  store ptr %0, ptr %2, align 8, !tbaa !3
  %3 = load ptr, ptr %2, align 8
  %4 = getelementptr inbounds nuw %"class.boost::archive::object_id_type", ptr %3, i32 0, i32 0
  ret ptr %4
}

; Function Attrs: mustprogress nounwind uwtable
define linkonce_odr hidden void @_ZN5boost7archive14object_id_typeC2ERKm(ptr noundef nonnull align 4 dereferenceable(4) %0, ptr noundef nonnull align 8 dereferenceable(8) %1) unnamed_addr #2 comdat align 2 {
  %3 = alloca ptr, align 8
  %4 = alloca ptr, align 8
  store ptr %0, ptr %3, align 8, !tbaa !3
  store ptr %1, ptr %4, align 8, !tbaa !3
  %5 = load ptr, ptr %3, align 8
  %6 = getelementptr inbounds nuw %"class.boost::archive::object_id_type", ptr %5, i32 0, i32 0
  %7 = load ptr, ptr %4, align 8, !tbaa !3
  %8 = load i64, ptr %7, align 8, !tbaa !48
  %9 = trunc i64 %8 to i32
  store i32 %9, ptr %6, align 4, !tbaa !51
  ret void
}

; Function Attrs: mustprogress nounwind uwtable
define linkonce_odr hidden noundef i64 @_ZNKSt6vectorIN5boost7archive6detail19basic_iarchive_impl7aobjectESaIS4_EE4sizeEv(ptr noundef nonnull align 8 dereferenceable(24) %0) #2 comdat align 2 {
  %2 = alloca ptr, align 8
  store ptr %0, ptr %2, align 8, !tbaa !3
  %3 = load ptr, ptr %2, align 8
  %4 = getelementptr inbounds nuw %"struct.std::_Vector_base", ptr %3, i32 0, i32 0
  %5 = getelementptr inbounds nuw %"struct.std::_Vector_base<boost::archive::detail::basic_iarchive_impl::aobject, std::allocator<boost::archive::detail::basic_iarchive_impl::aobject>>::_Vector_impl_data", ptr %4, i32 0, i32 1
  %6 = load ptr, ptr %5, align 8, !tbaa !52
  %7 = getelementptr inbounds nuw %"struct.std::_Vector_base", ptr %3, i32 0, i32 0
  %8 = getelementptr inbounds nuw %"struct.std::_Vector_base<boost::archive::detail::basic_iarchive_impl::aobject, std::allocator<boost::archive::detail::basic_iarchive_impl::aobject>>::_Vector_impl_data", ptr %7, i32 0, i32 0
  %9 = load ptr, ptr %8, align 8, !tbaa !53
  %10 = ptrtoint ptr %6 to i64
  %11 = ptrtoint ptr %9 to i64
  %12 = sub i64 %10, %11
  %13 = sdiv exact i64 %12, 16
  ret i64 %13
}

; Function Attrs: mustprogress uwtable
define linkonce_odr hidden void @_ZN5boost7archive6detail19basic_iarchive_impl4loadINS0_14object_id_typeEEEvRNS1_14basic_iarchiveERT_(ptr noundef nonnull align 8 dereferenceable(144) %0, ptr noundef nonnull align 8 dereferenceable(40) %1, ptr noundef nonnull align 4 dereferenceable(4) %2) #0 comdat align 2 {
  %4 = alloca ptr, align 8
  %5 = alloca ptr, align 8
  %6 = alloca ptr, align 8
  store ptr %0, ptr %4, align 8, !tbaa !3
  store ptr %1, ptr %5, align 8, !tbaa !3
  store ptr %2, ptr %6, align 8, !tbaa !3
  %7 = load ptr, ptr %5, align 8, !tbaa !3
  %8 = load ptr, ptr %6, align 8, !tbaa !3
  %9 = load ptr, ptr %7, align 8, !tbaa !16
  %10 = getelementptr inbounds ptr, ptr %9, i64 1
  %11 = load ptr, ptr %10, align 8
  call void %11(ptr noundef nonnull align 8 dereferenceable(40) %7, ptr noundef nonnull align 4 dereferenceable(4) %8)
  ret void
}

; Function Attrs: mustprogress nounwind uwtable
define linkonce_odr hidden void @_ZN5boost7archive14object_id_typeC2Ev(ptr noundef nonnull align 4 dereferenceable(4) %0) unnamed_addr #2 comdat align 2 {
  %2 = alloca ptr, align 8
  store ptr %0, ptr %2, align 8, !tbaa !3
  %3 = load ptr, ptr %2, align 8
  %4 = getelementptr inbounds nuw %"class.boost::archive::object_id_type", ptr %3, i32 0, i32 0
  store i32 0, ptr %4, align 4, !tbaa !51
  ret void
}

; Function Attrs: mustprogress uwtable
define hidden noundef zeroext i1 @_ZN5boost7archive6detail19basic_iarchive_impl5trackERNS1_14basic_iarchiveERPv(ptr noundef nonnull align 8 dereferenceable(144) %0, ptr noundef nonnull align 8 dereferenceable(40) %1, ptr noundef nonnull align 8 dereferenceable(8) %2) #0 align 2 {
  %4 = alloca i1, align 1
  %5 = alloca ptr, align 8
  %6 = alloca ptr, align 8
  %7 = alloca ptr, align 8
  %8 = alloca %"class.boost::archive::object_id_type", align 4
  %9 = alloca %"class.boost::archive::object_id_type", align 4
  %10 = alloca i64, align 8
  %11 = alloca i32, align 4
  store ptr %0, ptr %5, align 8, !tbaa !3
  store ptr %1, ptr %6, align 8, !tbaa !3
  store ptr %2, ptr %7, align 8, !tbaa !3
  %12 = load ptr, ptr %5, align 8
  call void @llvm.lifetime.start.p0(i64 4, ptr %8) #16
  call void @_ZN5boost7archive14object_id_typeC2Ev(ptr noundef nonnull align 4 dereferenceable(4) %8)
  %13 = load ptr, ptr %6, align 8, !tbaa !3
  call void @_ZN5boost7archive6detail19basic_iarchive_impl4loadINS0_14object_id_typeEEEvRNS1_14basic_iarchiveERT_(ptr noundef nonnull align 8 dereferenceable(144) %12, ptr noundef nonnull align 8 dereferenceable(40) %13, ptr noundef nonnull align 4 dereferenceable(4) %8)
  call void @llvm.lifetime.start.p0(i64 4, ptr %9) #16
  call void @llvm.lifetime.start.p0(i64 8, ptr %10) #16
  %14 = getelementptr inbounds nuw %"class.boost::archive::detail::basic_iarchive_impl", ptr %12, i32 0, i32 2
  %15 = call noundef i64 @_ZNKSt6vectorIN5boost7archive6detail19basic_iarchive_impl7aobjectESaIS4_EE4sizeEv(ptr noundef nonnull align 8 dereferenceable(24) %14) #16
  store i64 %15, ptr %10, align 8, !tbaa !48
  call void @_ZN5boost7archive14object_id_typeC2ERKm(ptr noundef nonnull align 4 dereferenceable(4) %9, ptr noundef nonnull align 8 dereferenceable(8) %10)
  %16 = call noundef nonnull align 4 dereferenceable(4) ptr @_ZN5boost7archive14object_id_typecvRjEv(ptr noundef nonnull align 4 dereferenceable(4) %9)
  %17 = load i32, ptr %16, align 4, !tbaa !42
  %18 = call noundef nonnull align 4 dereferenceable(4) ptr @_ZN5boost7archive14object_id_typecvRjEv(ptr noundef nonnull align 4 dereferenceable(4) %8)
  %19 = load i32, ptr %18, align 4, !tbaa !42
  %20 = icmp ugt i32 %17, %19
  call void @llvm.lifetime.end.p0(i64 8, ptr %10) #16
  call void @llvm.lifetime.end.p0(i64 4, ptr %9) #16
  br i1 %20, label %21, label %30

21:                                               ; preds = %3
  %22 = getelementptr inbounds nuw %"class.boost::archive::detail::basic_iarchive_impl", ptr %12, i32 0, i32 2
  %23 = call noundef nonnull align 4 dereferenceable(4) ptr @_ZN5boost7archive14object_id_typecvRjEv(ptr noundef nonnull align 4 dereferenceable(4) %8)
  %24 = load i32, ptr %23, align 4, !tbaa !42
  %25 = zext i32 %24 to i64
  %26 = call noundef nonnull align 8 dereferenceable(12) ptr @_ZNSt6vectorIN5boost7archive6detail19basic_iarchive_impl7aobjectESaIS4_EEixEm(ptr noundef nonnull align 8 dereferenceable(24) %22, i64 noundef %25) #16
  %27 = getelementptr inbounds nuw %"struct.boost::archive::detail::basic_iarchive_impl::aobject", ptr %26, i32 0, i32 0
  %28 = load ptr, ptr %27, align 8, !tbaa !49
  %29 = load ptr, ptr %7, align 8, !tbaa !3
  store ptr %28, ptr %29, align 8, !tbaa !3
  store i1 false, ptr %4, align 1
  store i32 1, ptr %11, align 4
  br label %31

30:                                               ; preds = %3
  store i1 true, ptr %4, align 1
  store i32 1, ptr %11, align 4
  br label %31

31:                                               ; preds = %30, %21
  call void @llvm.lifetime.end.p0(i64 4, ptr %8) #16
  %32 = load i1, ptr %4, align 1
  ret i1 %32
}