; Function Attrs: mustprogress uwtable
define hidden noundef zeroext i1 @_ZN5boost7archive6detail19basic_iarchive_impl5trackERNS1_14basic_iarchiveERPv(ptr nocapture noundef nonnull readonly align 8 dereferenceable(144) %0, ptr noundef nonnull align 8 dereferenceable(40) %1, ptr nocapture noundef nonnull writeonly align 8 dereferenceable(8) %2) local_unnamed_addr #0 align 2 {
  %4 = alloca %"class.boost::archive::object_id_type", align 4
  call void @llvm.lifetime.start.p0(i64 4, ptr nonnull %4) #23
  store i32 0, ptr %4, align 4, !tbaa !45
  %5 = load ptr, ptr %1, align 8, !tbaa !15
  %6 = getelementptr inbounds i8, ptr %5, i64 8
  %7 = load ptr, ptr %6, align 8
  call void %7(ptr noundef nonnull align 8 dereferenceable(40) %1, ptr noundef nonnull align 4 dereferenceable(4) %4)
  %8 = getelementptr inbounds nuw i8, ptr %0, i64 8
  %9 = getelementptr inbounds nuw i8, ptr %0, i64 16
  %10 = load ptr, ptr %9, align 8, !tbaa !46
  %11 = load ptr, ptr %8, align 8, !tbaa !47
  %12 = ptrtoint ptr %10 to i64
  %13 = ptrtoint ptr %11 to i64
  %14 = sub i64 %12, %13
  %15 = lshr exact i64 %14, 4
  %16 = trunc i64 %15 to i32
  %17 = load i32, ptr %4, align 4, !tbaa !48
  %18 = icmp uge i32 %17, %16
  br i1 %18, label %23, label %19

19:                                               ; preds = %3
  %20 = zext i32 %17 to i64
  %21 = getelementptr inbounds nuw %"struct.boost::archive::detail::basic_iarchive_impl::aobject", ptr %11, i64 %20
  %22 = load ptr, ptr %21, align 8, !tbaa !49
  store ptr %22, ptr %2, align 8, !tbaa !51
  br label %23

23:                                               ; preds = %3, %19
  call void @llvm.lifetime.end.p0(i64 4, ptr nonnull %4) #23
  ret i1 %18
}